(dp0
S'torso'
p1
(lp2
S'torso_lift_joint'
p3
asS'head_traj'
p4
(lp5
S'head_pan_joint'
p6
aS'head_tilt_joint'
p7
asS'rarm'
p8
(lp9
S'r_shoulder_pan_joint'
p10
aS'r_shoulder_lift_joint'
p11
aS'r_upper_arm_roll_joint'
p12
aS'r_elbow_flex_joint'
p13
aS'r_forearm_roll_joint'
p14
aS'r_wrist_flex_joint'
p15
aS'r_wrist_roll_joint'
p16
asS'larm'
p17
(lp18
S'l_shoulder_pan_joint'
p19
aS'l_shoulder_lift_joint'
p20
aS'l_upper_arm_roll_joint'
p21
aS'l_elbow_flex_joint'
p22
aS'l_forearm_roll_joint'
p23
aS'l_wrist_flex_joint'
p24
aS'l_wrist_roll_joint'
p25
as.