(dp0
S'good_configs_list'
p1
(lp2
(lp3
F-0.24863991141319275
aF0.33152386546134949
aF-0.41492822766304016
aF1.9894266128540039
aF0.10736320912837982
aF-0.065194182097911835
aF0.0025156219489872456
aa(lp4
F-0.59378558397293091
aF0.42202875018119812
aF-0.26766607165336609
aF2.2931547164916992
aF0.13344088196754456
aF-0.065194182097911835
aF0.0025156219489872456
aa(lp5
F-0.41891178488731384
aF0.51406759023666382
aF-0.1449476033449173
aF2.1412906646728516
aF0.29911080002784729
aF-0.065194182097911835
aF0.0025156219489872456
aa(lp6
F0.052020326256752014
aF0.56008702516555786
aF-0.34436509013175964
aF1.7700673341751099
aF0.46017879247665405
aF-0.066728167235851288
aF0.0025156219489872456
aa(lp7
F-0.68122249841690063
aF0.41282486915588379
aF-0.21090877056121826
aF2.3054265975952148
aF0.20707195997238159
aF-0.066728167235851288
aF0.0025156219489872456
aa(lp8
F-0.51248461008071899
aF0.62604820728302002
aF0.039130091667175293
aF2.1811742782592773
aF0.46631470322608948
aF-0.065194182097911835
aF0.0040496028959751129
aa(lp9
F0.018272746354341507
aF0.71041715145111084
aF-0.25999617576599121
aF1.7746692895889282
aF0.75163513422012329
aF-0.065194182097911835
aF0.0040496028959751129
aa(lp10
F0.21308830380439758
aF0.31311610341072083
aF-0.42566609382629395
aF1.5200284719467163
aF0.42643120884895325
aF-0.065194182097911835
aF0.005583583377301693
aa(lp11
F-0.45879527926445007
aF0.30237823724746704
aF-0.2063068300485611
aF1.6458148956298828
aF0.55221766233444214
aF-0.066728167235851288
aF0.005583583377301693
aa(lp12
F-0.29926127195358276
aF0.12597045302391052
aF-0.43947190046310425
aF1.4141838550567627
aF0.15798456966876984
aF-0.065194182097911835
aF0.005583583377301693
aa(lp13
F0.3756902813911438
aF0.26556271314620972
aF-0.41646221280097961
aF1.2945332527160645
aF0.44944092631340027
aF-0.066728167235851288
aF0.005583583377301693
aa(lp14
F0.58891361951828003
aF0.24868890643119812
aF-0.41492822766304016
aF1.0797760486602783
aF0.50159627199172974
aF-0.065194182097911835
aF0.005583583377301693
aa(lp15
F0.5014767050743103
aF0.64292198419570923
aF-0.56525832414627075
aF1.2976012229919434
aF0.56909143924713135
aF-0.066728167235851288
aF0.0040496028959751129
aa(lp16
F-0.050756387412548065
aF0.12903840839862823
aF-0.35510295629501343
aF1.6887663602828979
aF0.099693305790424347
aF-0.095873802900314331
aF0.034729219973087311
aasS'cart_pts_mat'
p17
cnumpy.core.multiarray
_reconstruct
p18
(cnumpy.core.defmatrix
matrix
p19
(I0
tp20
S'b'
p21
tp22
Rp23
(I1
(I3
I14
tp24
cnumpy
dtype
p25
(S'f8'
p26
I0
I1
tp27
Rp28
(I3
S'<'
p29
NNNI-1
I-1
I0
tp30
bI01
S'Z\x01Y\x9c\xfd2\xd3?(\x87;\xf7\x01\xbe\xbb\xbfQ\xfb\xe5\xc0\xb4\t\xce\xbfa4\xb5O\x1c\xd4\xcd?\xa4^\xb8\nBQ\xc2\xbfR\xae\xf0 \xd0\xa7\xc9\xbfc\x0eW\xa4\x9a\xa3\xd2?\xd6\xcf.\xcc_f\xc9\xbf\xf4_\xba\xc6\x9a\x07\xca\xbf\xe4\x89z\xb0\n#\xd9?!S\xe8\x90\x10\xd5\xc9\xbf\x12\xbf\x06+\xa8\x0f\xcb\xbf\xd9)W/\xffr\xcc?\xef\x1d\x07\x12\xb4"\xc4\xbf\x85P\x1a\xce\xc9,\xcb\xbf\xbc\xf2\x00p\xb2\xa2\xd2?\xb5\xc0zs\x87\xdd\xcf\xbf{Z\xfeh\xaew\xc7\xbf\xd6\xf2]\xe6\xba<\xd9?\xc0\xe8\x95\x19+\x7f\xd0\xbf\xd9\xfb\xb9\xe7\x87*\xc9\xbf`h\xac\xa0\xd1\xec\xdb?\n\x98\xf20h\x99\xc2\xbf~\xc3\x83X(\xc8\xcf\xbf\xf3\xed}\x91\xc0s\xcf?\xb2j3\x99x~\xca\xbf \xe4\xe8\xb7iZ\xda\xbf{$M\x91<4\xcf?5?\xde\xa5\xce\x95\xb6\xbf.\xe2`\x8bk<\xdd\xbf\xb3b_\xe9\xea;\xdf?\xb0\xe1J\x04Q\xd2\xc4\xbf\x96kt\xef\x14^\xd0\xbf\x01-j\xfc\xf5y\xe1?k.7\xe0\xc1+\xc8\xbfN\xe6qw\xf2\xcd\xcc\xbf\\\xa4\xe8\xb6\x8e\xbc\xdf?\xc8R\xa4\xaf\n\x93\xd1\xbf\xcf\xd3\xab\xa9\xd6g\xcb\xbf\nt\x0eg\x1b\xe1\xd7?\xb9\xeeu\xbc\xdb\xe0\xbb\xbfA\x9f\xa5\x1f\x94\x87\xd1\xbf'
p31
tp32
bs.