(dp0
S'good_configs_list'
p1
(lp2
(lp3
F-0.65860480070114136
aF-0.035281557589769363
aF-0.0069029135629534721
aF2.1341345310211182
aF-0.032972864806652069
aF-0.022219818085432053
aF-0.055223308503627777
aa(lp4
F-0.36714845895767212
aF-0.2485048919916153
aF0.4747670590877533
aF2.0528335571289062
aF-0.052914615720510483
aF-0.048297490924596786
aF-0.030679615214467049
aa(lp5
F-0.28431349992752075
aF-0.030679615214467049
aF0.46249520778656006
aF1.996076226234436
aF0.14803686738014221
aF-0.1157926470041275
aF0.12118448317050934
aa(lp6
F0.20502638816833496
aF-0.24390295147895813
aF1.0239322185516357
aF1.856484055519104
aF-0.14495345950126648
aF-0.039093606173992157
aF-0.77466028928756714
aa(lp7
F0.40137591958045959
aF-0.062893211841583252
aF0.039116509258747101
aF1.2229499816894531
aF-0.013031113892793655
aF0.033003490418195724
aF-0.023009711876511574
aa(lp8
F0.99502646923065186
aF-0.039883501827716827
aF0.075932048261165619
aF0.58941584825515747
aF-0.10506995767354965
aF-0.0022780681028962135
aF-0.032213594764471054
aa(lp9
F0.088443845510482788
aF-0.80533993244171143
aF0.19251458346843719
aF1.6079790592193604
aF-0.79996323585510254
aF0.042207375168800354
aF-0.14419420063495636
aa(lp10
F-0.84728443622589111
aF-0.1089126393198967
aF0.03604855015873909
aF2.2461152076721191
aF-0.052914615720510483
aF0.042207375168800354
aF-0.023009711876511574
aa(lp11
F0.19275453686714172
aF-0.81147581338882446
aF0.097407780587673187
aF1.3717460632324219
aF-0.77235162258148193
aF-0.0053460295312106609
aF-0.042951460927724838
aa(lp12
F-0.38402223587036133
aF-0.15033011138439178
aF0.0084368940442800522
aF1.7997267246246338
aF0.065201908349990845
aF-0.1464722603559494
aF-0.030679615214467049
aasS'cart_pts_mat'
p13
cnumpy.core.multiarray
_reconstruct
p14
(cnumpy.core.defmatrix
matrix
p15
(I0
tp16
S'b'
p17
tp18
Rp19
(I1
(I3
I10
tp20
cnumpy
dtype
p21
(S'f8'
p22
I0
I1
tp23
Rp24
(I3
S'<'
p25
NNNI-1
I-1
I0
tp26
bI01
S'\x0b\x11!n\x96\x8f\xce?\x81\xc1\xaa\x0e*>\xca\xbf\xe1\xd5\xd1\x15\xed\x05\xd1\xbf\n\xd7YOq~\xd0?\xa0"\xed!$\x96\xd6\xbf\x94\x88\x97\xbe\x02\xff\xcf\xbf\xf80\xa2\t\x01D\xd2?t@s\xbeyG\xd9\xbf\xf5\x0e\x8c^\xe9_\xcc\xbf\xb4\xd4\xc9\x05\xd3\xfb\xd3?\xcc\x0e\x92\x01\x07s\xdb\xbf\xec\xe0\xae;\x9c\'\xc9\xbf\x0f\x16AL\xa6\xaa\xe0?\xa3\xb1\x85g\xfa\xf8\xc9\xbf\xfc;L\x91\xe2Y\xcd\xbf\xefZ\x94\xbf\x9b\x9c\xe4?1\\Hg\xafP\xca\xbf\xf6\xe8\x17\xf0\xb73\xc2\xbf\xc61\xbb0\tj\xdb?9^\xd4\x87f\x88\xab\xbfO\xd3Q-\xa0\x1c\xcc\xbfp\x9f\xcb\xcb\x93\xd8\xc8?\xf1\xda\xa8v\xd0~\xcc\xbf\x9d\xac2\xba\xd2`\xd0\xbf\x83\x12\x19\xfdc\xf1\xdc?\xe3\x1f\xe5\xaa\xfc#\xa0?d\x86\x02\x88~\xa6\xcb\xbf#L2\x12\x11\x1b\xd3?kU5\x8d\xfa\x8f\xc7\xbf\x14_\x18x`\xf2\xd5\xbf'
p27
tp28
bs.