ccopy_reg
_reconstructor
p0
(csensor_msgs.msg._CameraInfo
CameraInfo
p1
c__builtin__
object
p2
Ntp3
Rp4
(lp5
g0
(croslib.msg._Header
Header
p6
g2
Ntp7
Rp8
(lp9
I3776
ag0
(croslib.rostime
Time
p10
g2
Ntp11
Rp12
(lp13
I1281124462
aI249623450
abaS'high_def_optical_frame'
p14
abaI2050
aI2448
ag0
(csensor_msgs.msg._RegionOfInterest
RegionOfInterest
p15
g2
Ntp16
Rp17
(lp18
I0
aI0
aI2050
aI2448
aba(F-0.37760000000000005
F0.16147
F0.00075000000000000002
F0.00029
F0.0
tp19
a(F2327.9798300000002
F0.0
F1161.3445099999999
F0.0
F2325.3650200000002
F1011.1803
F0.0
F0.0
F1.0
tp20
a(F1.0
F0.0
F0.0
F0.0
F1.0
F0.0
F0.0
F0.0
F1.0
tp21
a(F2327.9798300000002
F0.0
F1161.3445099999999
F0.0
F0.0
F2325.3650200000002
F1011.1803
F0.0
F0.0
F0.0
F1.0
F0.0
tp22
ab.